target datalayout = "e-m:e-p270:32:32-p271:32:32-p272:64:64-i64:64-i128:128-f80:128-n8:16:32:64-S128"
target triple = "x86_64-pc-linux-gnu"

; Function Attrs: alwaysinline nounwind willreturn memory(none) uwtable
define internal zeroext i8 @av_clip_uint8_c(i32 noundef %0) #4 {
  %2 = alloca i8, align 1
  %3 = alloca i32, align 4
  store i32 %0, ptr %3, align 4, !tbaa !9
  %4 = load i32, ptr %3, align 4, !tbaa !9
  %5 = and i32 %4, -256
  %6 = icmp ne i32 %5, 0
  br i1 %6, label %7, label %12

7:                                                ; preds = %1
  %8 = load i32, ptr %3, align 4, !tbaa !9
  %9 = xor i32 %8, -1
  %10 = ashr i32 %9, 31
  %11 = trunc i32 %10 to i8
  store i8 %11, ptr %2, align 1
  br label %15

12:                                               ; preds = %1
  %13 = load i32, ptr %3, align 4, !tbaa !9
  %14 = trunc i32 %13 to i8
  store i8 %14, ptr %2, align 1
  br label %15

15:                                               ; preds = %12, %7
  %16 = load i8, ptr %2, align 1
  ret i8 %16
}

; Function Attrs: nounwind uwtable
define void @ff_add_pixels_clamped_c(ptr noundef %0, ptr noalias noundef %1, i64 noundef %2) #3 {
  %4 = alloca ptr, align 8
  %5 = alloca ptr, align 8
  %6 = alloca i64, align 8
  %7 = alloca i32, align 4
  store ptr %0, ptr %4, align 8, !tbaa !18
  store ptr %1, ptr %5, align 8, !tbaa !4
  store i64 %2, ptr %6, align 8, !tbaa !20
  call void @llvm.lifetime.start.p0(i64 4, ptr %7) #5
  store i32 0, ptr %7, align 4, !tbaa !9
  br label %8

8:                                                ; preds = %113, %3
  %9 = load i32, ptr %7, align 4, !tbaa !9
  %10 = icmp slt i32 %9, 8
  br i1 %10, label %11, label %116

11:                                               ; preds = %8
  %12 = load ptr, ptr %5, align 8, !tbaa !4
  %13 = getelementptr inbounds i8, ptr %12, i64 0
  %14 = load i8, ptr %13, align 1, !tbaa !11
  %15 = zext i8 %14 to i32
  %16 = load ptr, ptr %4, align 8, !tbaa !18
  %17 = getelementptr inbounds i16, ptr %16, i64 0
  %18 = load i16, ptr %17, align 2, !tbaa !22
  %19 = sext i16 %18 to i32
  %20 = add nsw i32 %15, %19
  %21 = call zeroext i8 @av_clip_uint8_c(i32 noundef %20) #6
  %22 = load ptr, ptr %5, align 8, !tbaa !4
  %23 = getelementptr inbounds i8, ptr %22, i64 0
  store i8 %21, ptr %23, align 1, !tbaa !11
  %24 = load ptr, ptr %5, align 8, !tbaa !4
  %25 = getelementptr inbounds i8, ptr %24, i64 1
  %26 = load i8, ptr %25, align 1, !tbaa !11
  %27 = zext i8 %26 to i32
  %28 = load ptr, ptr %4, align 8, !tbaa !18
  %29 = getelementptr inbounds i16, ptr %28, i64 1
  %30 = load i16, ptr %29, align 2, !tbaa !22
  %31 = sext i16 %30 to i32
  %32 = add nsw i32 %27, %31
  %33 = call zeroext i8 @av_clip_uint8_c(i32 noundef %32) #6
  %34 = load ptr, ptr %5, align 8, !tbaa !4
  %35 = getelementptr inbounds i8, ptr %34, i64 1
  store i8 %33, ptr %35, align 1, !tbaa !11
  %36 = load ptr, ptr %5, align 8, !tbaa !4
  %37 = getelementptr inbounds i8, ptr %36, i64 2
  %38 = load i8, ptr %37, align 1, !tbaa !11
  %39 = zext i8 %38 to i32
  %40 = load ptr, ptr %4, align 8, !tbaa !18
  %41 = getelementptr inbounds i16, ptr %40, i64 2
  %42 = load i16, ptr %41, align 2, !tbaa !22
  %43 = sext i16 %42 to i32
  %44 = add nsw i32 %39, %43
  %45 = call zeroext i8 @av_clip_uint8_c(i32 noundef %44) #6
  %46 = load ptr, ptr %5, align 8, !tbaa !4
  %47 = getelementptr inbounds i8, ptr %46, i64 2
  store i8 %45, ptr %47, align 1, !tbaa !11
  %48 = load ptr, ptr %5, align 8, !tbaa !4
  %49 = getelementptr inbounds i8, ptr %48, i64 3
  %50 = load i8, ptr %49, align 1, !tbaa !11
  %51 = zext i8 %50 to i32
  %52 = load ptr, ptr %4, align 8, !tbaa !18
  %53 = getelementptr inbounds i16, ptr %52, i64 3
  %54 = load i16, ptr %53, align 2, !tbaa !22
  %55 = sext i16 %54 to i32
  %56 = add nsw i32 %51, %55
  %57 = call zeroext i8 @av_clip_uint8_c(i32 noundef %56) #6
  %58 = load ptr, ptr %5, align 8, !tbaa !4
  %59 = getelementptr inbounds i8, ptr %58, i64 3
  store i8 %57, ptr %59, align 1, !tbaa !11
  %60 = load ptr, ptr %5, align 8, !tbaa !4
  %61 = getelementptr inbounds i8, ptr %60, i64 4
  %62 = load i8, ptr %61, align 1, !tbaa !11
  %63 = zext i8 %62 to i32
  %64 = load ptr, ptr %4, align 8, !tbaa !18
  %65 = getelementptr inbounds i16, ptr %64, i64 4
  %66 = load i16, ptr %65, align 2, !tbaa !22
  %67 = sext i16 %66 to i32
  %68 = add nsw i32 %63, %67
  %69 = call zeroext i8 @av_clip_uint8_c(i32 noundef %68) #6
  %70 = load ptr, ptr %5, align 8, !tbaa !4
  %71 = getelementptr inbounds i8, ptr %70, i64 4
  store i8 %69, ptr %71, align 1, !tbaa !11
  %72 = load ptr, ptr %5, align 8, !tbaa !4
  %73 = getelementptr inbounds i8, ptr %72, i64 5
  %74 = load i8, ptr %73, align 1, !tbaa !11
  %75 = zext i8 %74 to i32
  %76 = load ptr, ptr %4, align 8, !tbaa !18
  %77 = getelementptr inbounds i16, ptr %76, i64 5
  %78 = load i16, ptr %77, align 2, !tbaa !22
  %79 = sext i16 %78 to i32
  %80 = add nsw i32 %75, %79
  %81 = call zeroext i8 @av_clip_uint8_c(i32 noundef %80) #6
  %82 = load ptr, ptr %5, align 8, !tbaa !4
  %83 = getelementptr inbounds i8, ptr %82, i64 5
  store i8 %81, ptr %83, align 1, !tbaa !11
  %84 = load ptr, ptr %5, align 8, !tbaa !4
  %85 = getelementptr inbounds i8, ptr %84, i64 6
  %86 = load i8, ptr %85, align 1, !tbaa !11
  %87 = zext i8 %86 to i32
  %88 = load ptr, ptr %4, align 8, !tbaa !18
  %89 = getelementptr inbounds i16, ptr %88, i64 6
  %90 = load i16, ptr %89, align 2, !tbaa !22
  %91 = sext i16 %90 to i32
  %92 = add nsw i32 %87, %91
  %93 = call zeroext i8 @av_clip_uint8_c(i32 noundef %92) #6
  %94 = load ptr, ptr %5, align 8, !tbaa !4
  %95 = getelementptr inbounds i8, ptr %94, i64 6
  store i8 %93, ptr %95, align 1, !tbaa !11
  %96 = load ptr, ptr %5, align 8, !tbaa !4
  %97 = getelementptr inbounds i8, ptr %96, i64 7
  %98 = load i8, ptr %97, align 1, !tbaa !11
  %99 = zext i8 %98 to i32
  %100 = load ptr, ptr %4, align 8, !tbaa !18
  %101 = getelementptr inbounds i16, ptr %100, i64 7
  %102 = load i16, ptr %101, align 2, !tbaa !22
  %103 = sext i16 %102 to i32
  %104 = add nsw i32 %99, %103
  %105 = call zeroext i8 @av_clip_uint8_c(i32 noundef %104) #6
  %106 = load ptr, ptr %5, align 8, !tbaa !4
  %107 = getelementptr inbounds i8, ptr %106, i64 7
  store i8 %105, ptr %107, align 1, !tbaa !11
  %108 = load i64, ptr %6, align 8, !tbaa !20
  %109 = load ptr, ptr %5, align 8, !tbaa !4
  %110 = getelementptr inbounds i8, ptr %109, i64 %108
  store ptr %110, ptr %5, align 8, !tbaa !4
  %111 = load ptr, ptr %4, align 8, !tbaa !18
  %112 = getelementptr inbounds i16, ptr %111, i64 8
  store ptr %112, ptr %4, align 8, !tbaa !18
  br label %113

113:                                              ; preds = %11
  %114 = load i32, ptr %7, align 4, !tbaa !9
  %115 = add nsw i32 %114, 1
  store i32 %115, ptr %7, align 4, !tbaa !9
  br label %8, !llvm.loop !25

116:                                              ; preds = %8
  call void @llvm.lifetime.end.p0(i64 4, ptr %7) #5
  ret void
}