; Function Attrs: nofree norecurse nosync nounwind memory(argmem: readwrite) uwtable
define void @ff_add_pixels_clamped_c(ptr noundef readonly captures(none) %0, ptr noalias noundef captures(none) %1, i64 noundef %2) #3 {
.lver.check:
  %ident.check.not = icmp eq i64 %2, 1
  br i1 %ident.check.not, label %.ph, label %.ph.lver.orig

.ph.lver.orig:                                    ; preds = %.lver.check, %.ph.lver.orig
  %.053.lver.orig = phi i32 [ %75, %.ph.lver.orig ], [ 0, %.lver.check ]
  %.02852.lver.orig = phi ptr [ %74, %.ph.lver.orig ], [ %0, %.lver.check ]
  %.02951.lver.orig = phi ptr [ %73, %.ph.lver.orig ], [ %1, %.lver.check ]
  %3 = load i8, ptr %.02951.lver.orig, align 1, !tbaa !4
  %4 = zext i8 %3 to i32
  %5 = load i16, ptr %.02852.lver.orig, align 2, !tbaa !13
  %6 = sext i16 %5 to i32
  %7 = add nsw i32 %6, %4
  %.not.i48.lver.orig = icmp ult i32 %7, 256
  %isnotneg.i49.lver.orig = icmp sgt i32 %7, -1
  %8 = sext i1 %isnotneg.i49.lver.orig to i8
  %9 = trunc nuw i32 %7 to i8
  %.0.i50.lver.orig = select i1 %.not.i48.lver.orig, i8 %9, i8 %8
  store i8 %.0.i50.lver.orig, ptr %.02951.lver.orig, align 1, !tbaa !4
  %10 = getelementptr inbounds nuw i8, ptr %.02951.lver.orig, i64 1
  %11 = load i8, ptr %10, align 1, !tbaa !4
  %12 = zext i8 %11 to i32
  %13 = getelementptr inbounds nuw i8, ptr %.02852.lver.orig, i64 2
  %14 = load i16, ptr %13, align 2, !tbaa !13
  %15 = sext i16 %14 to i32
  %16 = add nsw i32 %15, %12
  %.not.i45.lver.orig = icmp ult i32 %16, 256
  %isnotneg.i46.lver.orig = icmp sgt i32 %16, -1
  %17 = sext i1 %isnotneg.i46.lver.orig to i8
  %18 = trunc nuw i32 %16 to i8
  %.0.i47.lver.orig = select i1 %.not.i45.lver.orig, i8 %18, i8 %17
  store i8 %.0.i47.lver.orig, ptr %10, align 1, !tbaa !4
  %19 = getelementptr inbounds nuw i8, ptr %.02951.lver.orig, i64 2
  %20 = load i8, ptr %19, align 1, !tbaa !4
  %21 = zext i8 %20 to i32
  %22 = getelementptr inbounds nuw i8, ptr %.02852.lver.orig, i64 4
  %23 = load i16, ptr %22, align 2, !tbaa !13
  %24 = sext i16 %23 to i32
  %25 = add nsw i32 %24, %21
  %.not.i42.lver.orig = icmp ult i32 %25, 256
  %isnotneg.i43.lver.orig = icmp sgt i32 %25, -1
  %26 = sext i1 %isnotneg.i43.lver.orig to i8
  %27 = trunc nuw i32 %25 to i8
  %.0.i44.lver.orig = select i1 %.not.i42.lver.orig, i8 %27, i8 %26
  store i8 %.0.i44.lver.orig, ptr %19, align 1, !tbaa !4
  %28 = getelementptr inbounds nuw i8, ptr %.02951.lver.orig, i64 3
  %29 = load i8, ptr %28, align 1, !tbaa !4
  %30 = zext i8 %29 to i32
  %31 = getelementptr inbounds nuw i8, ptr %.02852.lver.orig, i64 6
  %32 = load i16, ptr %31, align 2, !tbaa !13
  %33 = sext i16 %32 to i32
  %34 = add nsw i32 %33, %30
  %.not.i39.lver.orig = icmp ult i32 %34, 256
  %isnotneg.i40.lver.orig = icmp sgt i32 %34, -1
  %35 = sext i1 %isnotneg.i40.lver.orig to i8
  %36 = trunc nuw i32 %34 to i8
  %.0.i41.lver.orig = select i1 %.not.i39.lver.orig, i8 %36, i8 %35
  store i8 %.0.i41.lver.orig, ptr %28, align 1, !tbaa !4
  %37 = getelementptr inbounds nuw i8, ptr %.02951.lver.orig, i64 4
  %38 = load i8, ptr %37, align 1, !tbaa !4
  %39 = zext i8 %38 to i32
  %40 = getelementptr inbounds nuw i8, ptr %.02852.lver.orig, i64 8
  %41 = load i16, ptr %40, align 2, !tbaa !13
  %42 = sext i16 %41 to i32
  %43 = add nsw i32 %42, %39
  %.not.i36.lver.orig = icmp ult i32 %43, 256
  %isnotneg.i37.lver.orig = icmp sgt i32 %43, -1
  %44 = sext i1 %isnotneg.i37.lver.orig to i8
  %45 = trunc nuw i32 %43 to i8
  %.0.i38.lver.orig = select i1 %.not.i36.lver.orig, i8 %45, i8 %44
  store i8 %.0.i38.lver.orig, ptr %37, align 1, !tbaa !4
  %46 = getelementptr inbounds nuw i8, ptr %.02951.lver.orig, i64 5
  %47 = load i8, ptr %46, align 1, !tbaa !4
  %48 = zext i8 %47 to i32
  %49 = getelementptr inbounds nuw i8, ptr %.02852.lver.orig, i64 10
  %50 = load i16, ptr %49, align 2, !tbaa !13
  %51 = sext i16 %50 to i32
  %52 = add nsw i32 %51, %48
  %.not.i33.lver.orig = icmp ult i32 %52, 256
  %isnotneg.i34.lver.orig = icmp sgt i32 %52, -1
  %53 = sext i1 %isnotneg.i34.lver.orig to i8
  %54 = trunc nuw i32 %52 to i8
  %.0.i35.lver.orig = select i1 %.not.i33.lver.orig, i8 %54, i8 %53
  store i8 %.0.i35.lver.orig, ptr %46, align 1, !tbaa !4
  %55 = getelementptr inbounds nuw i8, ptr %.02951.lver.orig, i64 6
  %56 = load i8, ptr %55, align 1, !tbaa !4
  %57 = zext i8 %56 to i32
  %58 = getelementptr inbounds nuw i8, ptr %.02852.lver.orig, i64 12
  %59 = load i16, ptr %58, align 2, !tbaa !13
  %60 = sext i16 %59 to i32
  %61 = add nsw i32 %60, %57
  %.not.i30.lver.orig = icmp ult i32 %61, 256
  %isnotneg.i31.lver.orig = icmp sgt i32 %61, -1
  %62 = sext i1 %isnotneg.i31.lver.orig to i8
  %63 = trunc nuw i32 %61 to i8
  %.0.i32.lver.orig = select i1 %.not.i30.lver.orig, i8 %63, i8 %62
  store i8 %.0.i32.lver.orig, ptr %55, align 1, !tbaa !4
  %64 = getelementptr inbounds nuw i8, ptr %.02951.lver.orig, i64 7
  %65 = load i8, ptr %64, align 1, !tbaa !4
  %66 = zext i8 %65 to i32
  %67 = getelementptr inbounds nuw i8, ptr %.02852.lver.orig, i64 14
  %68 = load i16, ptr %67, align 2, !tbaa !13
  %69 = sext i16 %68 to i32
  %70 = add nsw i32 %69, %66
  %.not.i.lver.orig = icmp ult i32 %70, 256
  %isnotneg.i.lver.orig = icmp sgt i32 %70, -1
  %71 = sext i1 %isnotneg.i.lver.orig to i8
  %72 = trunc nuw i32 %70 to i8
  %.0.i.lver.orig = select i1 %.not.i.lver.orig, i8 %72, i8 %71
  store i8 %.0.i.lver.orig, ptr %64, align 1, !tbaa !4
  %73 = getelementptr inbounds i8, ptr %.02951.lver.orig, i64 %2
  %74 = getelementptr inbounds nuw i8, ptr %.02852.lver.orig, i64 16
  %75 = add nuw nsw i32 %.053.lver.orig, 1
  %exitcond.not.lver.orig = icmp eq i32 %75, 8
  br i1 %exitcond.not.lver.orig, label %.loopexit, label %.ph.lver.orig, !llvm.loop !16

.ph:                                              ; preds = %.lver.check
  %scevgep = getelementptr i8, ptr %1, i64 6
  %load_initial = load i8, ptr %scevgep, align 1
  br label %76

76:                                               ; preds = %.ph, %76
  %store_forwarded = phi i8 [ %load_initial, %.ph ], [ %.0.i, %76 ]
  %.053 = phi i32 [ 0, %.ph ], [ %148, %76 ]
  %.02852 = phi ptr [ %0, %.ph ], [ %147, %76 ]
  %.02951 = phi ptr [ %1, %.ph ], [ %146, %76 ]
  %77 = load i8, ptr %.02951, align 1, !tbaa !4
  %78 = zext i8 %77 to i32
  %79 = load i16, ptr %.02852, align 2, !tbaa !13
  %80 = sext i16 %79 to i32
  %81 = add nsw i32 %80, %78
  %.not.i48 = icmp ult i32 %81, 256
  %isnotneg.i49 = icmp sgt i32 %81, -1
  %82 = sext i1 %isnotneg.i49 to i8
  %83 = trunc nuw i32 %81 to i8
  %.0.i50 = select i1 %.not.i48, i8 %83, i8 %82
  store i8 %.0.i50, ptr %.02951, align 1, !tbaa !4
  %84 = getelementptr inbounds nuw i8, ptr %.02951, i64 1
  %85 = load i8, ptr %84, align 1, !tbaa !4
  %86 = zext i8 %85 to i32
  %87 = getelementptr inbounds nuw i8, ptr %.02852, i64 2
  %88 = load i16, ptr %87, align 2, !tbaa !13
  %89 = sext i16 %88 to i32
  %90 = add nsw i32 %89, %86
  %.not.i45 = icmp ult i32 %90, 256
  %isnotneg.i46 = icmp sgt i32 %90, -1
  %91 = sext i1 %isnotneg.i46 to i8
  %92 = trunc nuw i32 %90 to i8
  %.0.i47 = select i1 %.not.i45, i8 %92, i8 %91
  store i8 %.0.i47, ptr %84, align 1, !tbaa !4
  %93 = getelementptr inbounds nuw i8, ptr %.02951, i64 2
  %94 = load i8, ptr %93, align 1, !tbaa !4
  %95 = zext i8 %94 to i32
  %96 = getelementptr inbounds nuw i8, ptr %.02852, i64 4
  %97 = load i16, ptr %96, align 2, !tbaa !13
  %98 = sext i16 %97 to i32
  %99 = add nsw i32 %98, %95
  %.not.i42 = icmp ult i32 %99, 256
  %isnotneg.i43 = icmp sgt i32 %99, -1
  %100 = sext i1 %isnotneg.i43 to i8
  %101 = trunc nuw i32 %99 to i8
  %.0.i44 = select i1 %.not.i42, i8 %101, i8 %100
  store i8 %.0.i44, ptr %93, align 1, !tbaa !4
  %102 = getelementptr inbounds nuw i8, ptr %.02951, i64 3
  %103 = load i8, ptr %102, align 1, !tbaa !4
  %104 = zext i8 %103 to i32
  %105 = getelementptr inbounds nuw i8, ptr %.02852, i64 6
  %106 = load i16, ptr %105, align 2, !tbaa !13
  %107 = sext i16 %106 to i32
  %108 = add nsw i32 %107, %104
  %.not.i39 = icmp ult i32 %108, 256
  %isnotneg.i40 = icmp sgt i32 %108, -1
  %109 = sext i1 %isnotneg.i40 to i8
  %110 = trunc nuw i32 %108 to i8
  %.0.i41 = select i1 %.not.i39, i8 %110, i8 %109
  store i8 %.0.i41, ptr %102, align 1, !tbaa !4
  %111 = getelementptr inbounds nuw i8, ptr %.02951, i64 4
  %112 = load i8, ptr %111, align 1, !tbaa !4
  %113 = zext i8 %112 to i32
  %114 = getelementptr inbounds nuw i8, ptr %.02852, i64 8
  %115 = load i16, ptr %114, align 2, !tbaa !13
  %116 = sext i16 %115 to i32
  %117 = add nsw i32 %116, %113
  %.not.i36 = icmp ult i32 %117, 256
  %isnotneg.i37 = icmp sgt i32 %117, -1
  %118 = sext i1 %isnotneg.i37 to i8
  %119 = trunc nuw i32 %117 to i8
  %.0.i38 = select i1 %.not.i36, i8 %119, i8 %118
  store i8 %.0.i38, ptr %111, align 1, !tbaa !4
  %120 = getelementptr inbounds nuw i8, ptr %.02951, i64 5
  %121 = load i8, ptr %120, align 1, !tbaa !4
  %122 = zext i8 %121 to i32
  %123 = getelementptr inbounds nuw i8, ptr %.02852, i64 10
  %124 = load i16, ptr %123, align 2, !tbaa !13
  %125 = sext i16 %124 to i32
  %126 = add nsw i32 %125, %122
  %.not.i33 = icmp ult i32 %126, 256
  %isnotneg.i34 = icmp sgt i32 %126, -1
  %127 = sext i1 %isnotneg.i34 to i8
  %128 = trunc nuw i32 %126 to i8
  %.0.i35 = select i1 %.not.i33, i8 %128, i8 %127
  store i8 %.0.i35, ptr %120, align 1, !tbaa !4
  %129 = getelementptr inbounds nuw i8, ptr %.02951, i64 6
  %130 = zext i8 %store_forwarded to i32
  %131 = getelementptr inbounds nuw i8, ptr %.02852, i64 12
  %132 = load i16, ptr %131, align 2, !tbaa !13
  %133 = sext i16 %132 to i32
  %134 = add nsw i32 %133, %130
  %.not.i30 = icmp ult i32 %134, 256
  %isnotneg.i31 = icmp sgt i32 %134, -1
  %135 = sext i1 %isnotneg.i31 to i8
  %136 = trunc nuw i32 %134 to i8
  %.0.i32 = select i1 %.not.i30, i8 %136, i8 %135
  store i8 %.0.i32, ptr %129, align 1, !tbaa !4
  %137 = getelementptr inbounds nuw i8, ptr %.02951, i64 7
  %138 = load i8, ptr %137, align 1, !tbaa !4
  %139 = zext i8 %138 to i32
  %140 = getelementptr inbounds nuw i8, ptr %.02852, i64 14
  %141 = load i16, ptr %140, align 2, !tbaa !13
  %142 = sext i16 %141 to i32
  %143 = add nsw i32 %142, %139
  %.not.i = icmp ult i32 %143, 256
  %isnotneg.i = icmp sgt i32 %143, -1
  %144 = sext i1 %isnotneg.i to i8
  %145 = trunc nuw i32 %143 to i8
  %.0.i = select i1 %.not.i, i8 %145, i8 %144
  store i8 %.0.i, ptr %137, align 1, !tbaa !4
  %146 = getelementptr inbounds nuw i8, ptr %.02951, i64 %2
  %147 = getelementptr inbounds nuw i8, ptr %.02852, i64 16
  %148 = add nuw nsw i32 %.053, 1
  %exitcond.not = icmp eq i32 %148, 8
  br i1 %exitcond.not, label %.loopexit, label %76, !llvm.loop !16

.loopexit:                                        ; preds = %.ph.lver.orig, %76
  ret void
}